; Function Attrs: nounwind uwtable
define noalias nonnull ptr @l_Lean_IR_Borrow_ParamMap_getHash___boxed(ptr noundef %0) #1 {
  %2 = ptrtoint ptr %0 to i64
  %3 = and i64 %2, 1
  %.not.i.i = icmp eq i64 %3, 0
  br i1 %.not.i.i, label %7, label %4

4:                                                ; preds = %1
  %5 = lshr i64 %2, 1
  %6 = trunc i64 %5 to i32
  br label %lean_obj_tag.exit.i

7:                                                ; preds = %1
  %8 = getelementptr i8, ptr %0, i64 4
  %.val.i.i = load i32, ptr %8, align 4
  %9 = lshr i32 %.val.i.i, 24
  br label %lean_obj_tag.exit.i

lean_obj_tag.exit.i:                              ; preds = %7, %4
  %.0.i.i = phi i32 [ %6, %4 ], [ %9, %7 ]
  %10 = icmp eq i32 %.0.i.i, 0
  %11 = getelementptr inbounds nuw i8, ptr %0, i64 8
  %12 = load ptr, ptr %11, align 8, !tbaa !9
  br i1 %10, label %13, label %15

13:                                               ; preds = %lean_obj_tag.exit.i
  %14 = tail call i64 @l_Lean_Name_hash___override(ptr noundef %12) #6
  br label %l_Lean_IR_Borrow_ParamMap_getHash.exit

15:                                               ; preds = %lean_obj_tag.exit.i
  %16 = getelementptr inbounds nuw i8, ptr %0, i64 16
  %17 = load ptr, ptr %16, align 8, !tbaa !9
  %18 = tail call i64 @l_Lean_Name_hash___override(ptr noundef %12) #6
  %19 = ptrtoint ptr %17 to i64
  %20 = and i64 %19, 1
  %.not.i11.i = icmp eq i64 %20, 0
  br i1 %.not.i11.i, label %23, label %21

21:                                               ; preds = %15
  %22 = lshr i64 %19, 1
  br label %lean_uint64_of_nat.exit.i

23:                                               ; preds = %15
  %24 = tail call i64 @lean_uint64_of_big_nat(ptr noundef %17) #6
  br label %lean_uint64_of_nat.exit.i

lean_uint64_of_nat.exit.i:                        ; preds = %23, %21
  %25 = phi i64 [ %22, %21 ], [ %24, %23 ]
  %26 = tail call i64 @lean_uint64_mix_hash(i64 noundef %18, i64 noundef %25) #6
  br label %l_Lean_IR_Borrow_ParamMap_getHash.exit

l_Lean_IR_Borrow_ParamMap_getHash.exit:           ; preds = %13, %lean_uint64_of_nat.exit.i
  %.0.i = phi i64 [ %14, %13 ], [ %26, %lean_uint64_of_nat.exit.i ]
  br i1 %.not.i.i, label %27, label %lean_dec.exit

27:                                               ; preds = %l_Lean_IR_Borrow_ParamMap_getHash.exit
  %28 = load i32, ptr %0, align 4, !tbaa !4
  %29 = icmp sgt i32 %28, 1
  br i1 %29, label %30, label %32, !prof !11

30:                                               ; preds = %27
  %31 = add nsw i32 %28, -1
  store i32 %31, ptr %0, align 4, !tbaa !4
  br label %lean_dec.exit

32:                                               ; preds = %27
  %.not.i = icmp eq i32 %28, 0
  br i1 %.not.i, label %lean_dec.exit, label %33

33:                                               ; preds = %32
  tail call void @lean_dec_ref_cold(ptr noundef nonnull %0) #6
  br label %lean_dec.exit

lean_dec.exit:                                    ; preds = %33, %32, %30, %l_Lean_IR_Borrow_ParamMap_getHash.exit
  tail call void @lean_inc_heartbeat() #6
  %34 = tail call noalias ptr @mi_malloc_small(i64 noundef 16) #6
  %35 = icmp eq ptr %34, null
  br i1 %35, label %36, label %lean_box_uint64.exit

36:                                               ; preds = %lean_dec.exit
  tail call void @lean_internal_panic_out_of_memory() #7
  unreachable

lean_box_uint64.exit:                             ; preds = %lean_dec.exit
  %37 = getelementptr inbounds nuw i8, ptr %34, i64 4
  store i32 1, ptr %34, align 4, !tbaa !4
  store i32 16, ptr %37, align 4
  %38 = getelementptr inbounds nuw i8, ptr %34, i64 8
  store i64 %.0.i, ptr %38, align 8, !tbaa !13
  ret ptr %34
}